; Function Attrs: nounwind uwtable
define dso_local void @xdl_cha_free(ptr noundef readonly captures(none) %0) local_unnamed_addr #2 {
  %2 = load ptr, ptr %0, align 8, !tbaa !26
  %.not4 = icmp eq ptr %2, null
  br i1 %.not4, label %._crit_edge, label %.lr.ph

.lr.ph:                                           ; preds = %1, %.lr.ph
  %.05 = phi ptr [ %3, %.lr.ph ], [ %2, %1 ]
  %3 = load ptr, ptr %.05, align 8, !tbaa !27
  tail call void @free(ptr noundef nonnull %.05) #18
  %.not = icmp eq ptr %3, null
  br i1 %.not, label %._crit_edge, label %.lr.ph, !llvm.loop !29

._crit_edge:                                      ; preds = %.lr.ph, %1
  ret void
}